; Function Attrs: mustprogress uwtable
define noundef double @_ZNK6casadi18DaeBuilderInternal9attributeENS_9AttributeERKNSt7__cxx1112basic_stringIcSt11char_traitsIcESaIcEEE(ptr noundef nonnull align 8 dereferenceable(1017) %0, i32 noundef %1, ptr noundef nonnull align 8 dereferenceable(32) %2) local_unnamed_addr #4 align 2 {
  %4 = alloca double, align 8
  call void @llvm.lifetime.start.p0(i64 8, ptr nonnull %4) #30
  %5 = tail call noundef i64 @_ZNK6casadi18DaeBuilderInternal4findERKNSt7__cxx1112basic_stringIcSt11char_traitsIcESaIcEEE(ptr noundef nonnull align 8 dereferenceable(1017) %0, ptr noundef nonnull align 8 dereferenceable(32) %2)
  %6 = getelementptr inbounds nuw i8, ptr %0, i64 552
  %7 = getelementptr inbounds nuw i8, ptr %0, i64 560
  %8 = load ptr, ptr %7, align 8, !tbaa !145
  %9 = load ptr, ptr %6, align 8, !tbaa !148
  %10 = ptrtoint ptr %8 to i64
  %11 = ptrtoint ptr %9 to i64
  %12 = sub i64 %10, %11
  %13 = ashr exact i64 %12, 3
  %.not.i.i.i.i = icmp ult i64 %5, %13
  br i1 %.not.i.i.i.i, label %_ZNK6casadi18DaeBuilderInternal8variableERKNSt7__cxx1112basic_stringIcSt11char_traitsIcESaIcEEE.exit, label %14

14:                                               ; preds = %3
  tail call void (ptr, ...) @_ZSt24__throw_out_of_range_fmtPKcz(ptr noundef nonnull @.str.690, i64 noundef %5, i64 noundef %13) #29
  unreachable

_ZNK6casadi18DaeBuilderInternal8variableERKNSt7__cxx1112basic_stringIcSt11char_traitsIcESaIcEEE.exit: ; preds = %3
  %15 = getelementptr inbounds nuw ptr, ptr %9, i64 %5
  %16 = load ptr, ptr %15, align 8, !tbaa !149
  call void @_ZNK6casadi8Variable13get_attributeENS_9AttributeEPd(ptr noundef nonnull align 8 dereferenceable(408) %16, i32 noundef %1, ptr noundef nonnull %4)
  %17 = load double, ptr %4, align 8, !tbaa !64
  call void @llvm.lifetime.end.p0(i64 8, ptr nonnull %4) #30
  ret double %17
}